; Function Attrs: nounwind sspstrong uwtable
define dso_local noundef i64 @rb_complex_uminus(i64 noundef %0) #0 {
  %2 = inttoptr i64 %0 to ptr
  %3 = icmp eq i64 %0, 0
  %4 = and i64 %0, 7
  %5 = icmp ne i64 %4, 0
  %6 = or i1 %3, %5
  br i1 %6, label %9, label %7

7:                                                ; preds = %1
  %8 = getelementptr inbounds nuw i8, ptr %2, i64 8
  br label %rb_class_of.exit

9:                                                ; preds = %1
  switch i64 %0, label %12 [
    i64 0, label %rb_class_of.exit
    i64 4, label %10
    i64 20, label %11
  ]

10:                                               ; preds = %9
  br label %rb_class_of.exit

11:                                               ; preds = %9
  br label %rb_class_of.exit

12:                                               ; preds = %9
  %13 = and i64 %0, 1
  %.not.i = icmp eq i64 %13, 0
  br i1 %.not.i, label %14, label %rb_class_of.exit

14:                                               ; preds = %12
  %15 = and i64 %0, 254
  %16 = icmp eq i64 %15, 12
  %spec.select.i = select i1 %16, ptr @rb_cSymbol, ptr @rb_cFloat
  br label %rb_class_of.exit

rb_class_of.exit:                                 ; preds = %7, %9, %10, %11, %12, %14
  %.0.in.i = phi ptr [ @rb_cNilClass, %10 ], [ @rb_cTrueClass, %11 ], [ %8, %7 ], [ @rb_cFalseClass, %9 ], [ @rb_cInteger, %12 ], [ %spec.select.i, %14 ]
  %.0.i = load i64, ptr %.0.in.i, align 8, !tbaa !11
  %17 = getelementptr inbounds nuw i8, ptr %2, i64 16
  %18 = load i64, ptr %17, align 8, !tbaa !15
  %19 = tail call fastcc i64 @f_negate(i64 noundef %18)
  %20 = getelementptr inbounds nuw i8, ptr %2, i64 24
  %21 = load i64, ptr %20, align 8, !tbaa !18
  %22 = tail call fastcc i64 @f_negate(i64 noundef %21)
  %23 = icmp eq i64 %19, 0
  %24 = and i64 %19, 7
  %25 = icmp ne i64 %24, 0
  %26 = or i1 %23, %25
  br i1 %26, label %f_complex_new2.exit, label %rbimpl_RB_TYPE_P_fastpath.exit.i

rbimpl_RB_TYPE_P_fastpath.exit.i:                 ; preds = %rb_class_of.exit
  %27 = inttoptr i64 %19 to ptr
  %28 = load i64, ptr %27, align 8, !tbaa !19
  %29 = and i64 %28, 31
  %30 = icmp eq i64 %29, 14
  br i1 %30, label %31, label %f_complex_new2.exit

31:                                               ; preds = %rbimpl_RB_TYPE_P_fastpath.exit.i
  %32 = getelementptr inbounds nuw i8, ptr %27, i64 16
  %33 = load i64, ptr %32, align 8, !tbaa !15
  %34 = getelementptr inbounds nuw i8, ptr %27, i64 24
  %35 = load i64, ptr %34, align 8, !tbaa !18
  %36 = tail call fastcc i64 @f_add(i64 noundef %35, i64 noundef %22)
  br label %f_complex_new2.exit

f_complex_new2.exit:                              ; preds = %rb_class_of.exit, %rbimpl_RB_TYPE_P_fastpath.exit.i, %31
  %.07.i = phi i64 [ %36, %31 ], [ %22, %rbimpl_RB_TYPE_P_fastpath.exit.i ], [ %22, %rb_class_of.exit ]
  %.0.i3 = phi i64 [ %33, %31 ], [ %19, %rbimpl_RB_TYPE_P_fastpath.exit.i ], [ %19, %rb_class_of.exit ]
  %37 = tail call fastcc noundef i64 @nucomp_s_canonicalize_internal(i64 noundef %.0.i, i64 noundef %.0.i3, i64 noundef %.07.i)
  ret i64 %37
}